target datalayout = "e-m:e-p270:32:32-p271:32:32-p272:64:64-i64:64-i128:128-f80:128-n8:16:32:64-S128"
target triple = "x86_64-pc-linux-gnu"

%"class.pxrInternal_v0_24__pxrReserved__::TfCallContext" = type <{ ptr, ptr, i64, ptr, i8, [7 x i8] }>
%"class.std::set.130" = type { %"class.std::_Rb_tree.131" }
%"class.std::_Rb_tree.131" = type { %"struct.std::_Rb_tree<std::pair<unsigned long, pxrInternal_v0_24__pxrReserved__::PcpNodeRef>, std::pair<unsigned long, pxrInternal_v0_24__pxrReserved__::PcpNodeRef>, std::_Identity<std::pair<unsigned long, pxrInternal_v0_24__pxrReserved__::PcpNodeRef>>, std::less<std::pair<unsigned long, pxrInternal_v0_24__pxrReserved__::PcpNodeRef>>>::_Rb_tree_impl" }
%"struct.std::_Rb_tree<std::pair<unsigned long, pxrInternal_v0_24__pxrReserved__::PcpNodeRef>, std::pair<unsigned long, pxrInternal_v0_24__pxrReserved__::PcpNodeRef>, std::_Identity<std::pair<unsigned long, pxrInternal_v0_24__pxrReserved__::PcpNodeRef>>, std::less<std::pair<unsigned long, pxrInternal_v0_24__pxrReserved__::PcpNodeRef>>>::_Rb_tree_impl" = type { [8 x i8], %"struct.std::_Rb_tree_header" }
%"struct.std::_Rb_tree_header" = type { %"struct.std::_Rb_tree_node_base", i64 }
%"struct.std::_Rb_tree_node_base" = type { i32, ptr, ptr, ptr }
%"class.pxrInternal_v0_24__pxrReserved__::PcpNodeRef" = type { ptr, i64 }
%"struct.std::pair.166" = type { i64, %"class.pxrInternal_v0_24__pxrReserved__::PcpNodeRef" }
%"struct.std::pair.162" = type <{ %"struct.std::_Rb_tree_const_iterator.164", i8, [7 x i8] }>
%"struct.std::_Rb_tree_const_iterator.164" = type { ptr }
%"struct.std::pair.305" = type <{ %"struct.std::_Rb_tree_iterator.307", i8, [7 x i8] }>
%"struct.std::_Rb_tree_iterator.307" = type { ptr }

@.str.4 = private unnamed_addr constant [124 x i8] c"generated/home/dtcxzyw/WorkSpace/Projects/compilers/llvm-opt-benchmark/bench/openusd/OpenUSD/pxr/usd/pcp/namespaceEdits.cpp\00", align 1
@.str.49 = private unnamed_addr constant [5 x i8] c"node\00", align 1

; Function Attrs: mustprogress nounwind uwtable
define linkonce_odr void @_ZNSt23_Rb_tree_const_iteratorISt4pairImN32pxrInternal_v0_24__pxrReserved__10PcpNodeRefEEEC2ERKSt17_Rb_tree_iteratorIS3_E(ptr noundef nonnull align 8 dereferenceable(8) %0, ptr noundef nonnull align 8 dereferenceable(8) %1) unnamed_addr #2 comdat align 2 {
  %3 = alloca ptr, align 8
  %4 = alloca ptr, align 8
  store ptr %0, ptr %3, align 8
  store ptr %1, ptr %4, align 8
  %5 = load ptr, ptr %3, align 8
  %6 = getelementptr inbounds nuw %"struct.std::_Rb_tree_const_iterator.164", ptr %5, i32 0, i32 0
  %7 = load ptr, ptr %4, align 8
  %8 = getelementptr inbounds nuw %"struct.std::_Rb_tree_iterator.307", ptr %7, i32 0, i32 0
  %9 = load ptr, ptr %8, align 8
  store ptr %9, ptr %6, align 8
  ret void
}

; Function Attrs: mustprogress nounwind uwtable
define linkonce_odr void @_ZNSt4pairISt23_Rb_tree_const_iteratorIS_ImN32pxrInternal_v0_24__pxrReserved__10PcpNodeRefEEEbEC2IRSt17_Rb_tree_iteratorIS3_ERbTnNSt9enable_ifIXaaclsr5_PCCPE22_MoveConstructiblePairIT_T0_EEclsr5_PCCPE30_ImplicitlyMoveConvertiblePairISC_SD_EEEbE4typeELb1EEEOSC_OSD_(ptr noundef nonnull align 8 dereferenceable(9) %0, ptr noundef nonnull align 8 dereferenceable(8) %1, ptr noundef nonnull align 1 dereferenceable(1) %2) unnamed_addr #2 comdat align 2 {
  %4 = alloca ptr, align 8
  %5 = alloca ptr, align 8
  %6 = alloca ptr, align 8
  store ptr %0, ptr %4, align 8
  store ptr %1, ptr %5, align 8
  store ptr %2, ptr %6, align 8
  %7 = load ptr, ptr %4, align 8
  %8 = getelementptr inbounds nuw %"struct.std::pair.162", ptr %7, i32 0, i32 0
  %9 = load ptr, ptr %5, align 8
  call void @_ZNSt23_Rb_tree_const_iteratorISt4pairImN32pxrInternal_v0_24__pxrReserved__10PcpNodeRefEEEC2ERKSt17_Rb_tree_iteratorIS3_E(ptr noundef nonnull align 8 dereferenceable(8) %8, ptr noundef nonnull align 8 dereferenceable(8) %9) #6
  %10 = getelementptr inbounds nuw %"struct.std::pair.162", ptr %7, i32 0, i32 1
  %11 = load ptr, ptr %6, align 8
  %12 = load i8, ptr %11, align 1
  %13 = trunc i8 %12 to i1
  %14 = zext i1 %13 to i8
  store i8 %14, ptr %10, align 8
  ret void
}

; Function Attrs: mustprogress nounwind uwtable
define linkonce_odr void @_ZNSt4pairImN32pxrInternal_v0_24__pxrReserved__10PcpNodeRefEEC2IRmRS1_TnNSt9enable_ifIXaaclsr5_PCCPE22_MoveConstructiblePairIT_T0_EEclsr5_PCCPE30_ImplicitlyMoveConvertiblePairIS7_S8_EEEbE4typeELb1EEEOS7_OS8_(ptr noundef nonnull align 8 dereferenceable(24) %0, ptr noundef nonnull align 8 dereferenceable(8) %1, ptr noundef nonnull align 8 dereferenceable(16) %2) unnamed_addr #2 comdat align 2 {
  %4 = alloca ptr, align 8
  %5 = alloca ptr, align 8
  %6 = alloca ptr, align 8
  store ptr %0, ptr %4, align 8
  store ptr %1, ptr %5, align 8
  store ptr %2, ptr %6, align 8
  %7 = load ptr, ptr %4, align 8
  %8 = getelementptr inbounds nuw %"struct.std::pair.166", ptr %7, i32 0, i32 0
  %9 = load ptr, ptr %5, align 8
  %10 = load i64, ptr %9, align 8
  store i64 %10, ptr %8, align 8
  %11 = getelementptr inbounds nuw %"struct.std::pair.166", ptr %7, i32 0, i32 1
  %12 = load ptr, ptr %6, align 8
  call void @llvm.memcpy.p0.p0.i64(ptr align 8 %11, ptr align 8 %12, i64 16, i1 false)
  ret void
}

; Function Attrs: mustprogress uwtable
define linkonce_odr { ptr, i8 } @_ZNSt3setISt4pairImN32pxrInternal_v0_24__pxrReserved__10PcpNodeRefEESt4lessIS3_ESaIS3_EE6insertEOS3_(ptr noundef nonnull align 8 dereferenceable(48) %0, ptr noundef nonnull align 8 dereferenceable(24) %1) #0 comdat align 2 {
  %3 = alloca %"struct.std::pair.162", align 8
  %4 = alloca ptr, align 8
  %5 = alloca ptr, align 8
  %6 = alloca %"struct.std::pair.305", align 8
  %7 = alloca { ptr, i8 }, align 8
  store ptr %0, ptr %4, align 8
  store ptr %1, ptr %5, align 8
  %8 = load ptr, ptr %4, align 8
  %9 = getelementptr inbounds nuw %"class.std::set.130", ptr %8, i32 0, i32 0
  %10 = load ptr, ptr %5, align 8
  %11 = call { ptr, i8 } @_ZNSt8_Rb_treeISt4pairImN32pxrInternal_v0_24__pxrReserved__10PcpNodeRefEES3_St9_IdentityIS3_ESt4lessIS3_ESaIS3_EE16_M_insert_uniqueIS3_EES0_ISt17_Rb_tree_iteratorIS3_EbEOT_(ptr noundef nonnull align 8 dereferenceable(48) %9, ptr noundef nonnull align 8 dereferenceable(24) %10)
  store { ptr, i8 } %11, ptr %7, align 8
  call void @llvm.memcpy.p0.p0.i64(ptr align 8 %6, ptr align 8 %7, i64 9, i1 false)
  %12 = getelementptr inbounds nuw %"struct.std::pair.305", ptr %6, i32 0, i32 0
  %13 = getelementptr inbounds nuw %"struct.std::pair.305", ptr %6, i32 0, i32 1
  call void @_ZNSt4pairISt23_Rb_tree_const_iteratorIS_ImN32pxrInternal_v0_24__pxrReserved__10PcpNodeRefEEEbEC2IRSt17_Rb_tree_iteratorIS3_ERbTnNSt9enable_ifIXaaclsr5_PCCPE22_MoveConstructiblePairIT_T0_EEclsr5_PCCPE30_ImplicitlyMoveConvertiblePairISC_SD_EEEbE4typeELb1EEEOSC_OSD_(ptr noundef nonnull align 8 dereferenceable(9) %3, ptr noundef nonnull align 8 dereferenceable(8) %12, ptr noundef nonnull align 1 dereferenceable(1) %13)
  %14 = load { ptr, i8 }, ptr %3, align 8
  ret { ptr, i8 } %14
}

; Function Attrs: mustprogress uwtable
define linkonce_odr void @_ZSt9make_pairIRmRN32pxrInternal_v0_24__pxrReserved__10PcpNodeRefEESt4pairINSt25__strip_reference_wrapperINSt5decayIT_E4typeEE6__typeENS5_INS6_IT0_E4typeEE6__typeEEOS7_OSC_(ptr dead_on_unwind noalias writable sret(%"struct.std::pair.166") align 8 %0, ptr noundef nonnull align 8 dereferenceable(8) %1, ptr noundef nonnull align 8 dereferenceable(16) %2) #0 comdat {
  %4 = alloca ptr, align 8
  %5 = alloca ptr, align 8
  store ptr %1, ptr %4, align 8
  store ptr %2, ptr %5, align 8
  %6 = load ptr, ptr %4, align 8
  %7 = load ptr, ptr %5, align 8
  call void @_ZNSt4pairImN32pxrInternal_v0_24__pxrReserved__10PcpNodeRefEEC2IRmRS1_TnNSt9enable_ifIXaaclsr5_PCCPE22_MoveConstructiblePairIT_T0_EEclsr5_PCCPE30_ImplicitlyMoveConvertiblePairIS7_S8_EEEbE4typeELb1EEEOS7_OS8_(ptr noundef nonnull align 8 dereferenceable(24) %0, ptr noundef nonnull align 8 dereferenceable(8) %6, ptr noundef nonnull align 8 dereferenceable(16) %7)
  ret void
}

; Function Attrs: mustprogress nounwind uwtable
define linkonce_odr noundef ptr @_ZN32pxrInternal_v0_24__pxrReserved__21Tf_VerifyStringFormatEv() #2 comdat {
  ret ptr null
}

; Function Attrs: mustprogress nounwind uwtable
define linkonce_odr void @_ZN32pxrInternal_v0_24__pxrReserved__13TfCallContextC2EPKcS2_mS2_(ptr noundef nonnull align 8 dereferenceable(33) %0, ptr noundef %1, ptr noundef %2, i64 noundef %3, ptr noundef %4) unnamed_addr #2 comdat align 2 {
  %6 = alloca ptr, align 8
  %7 = alloca ptr, align 8
  %8 = alloca ptr, align 8
  %9 = alloca i64, align 8
  %10 = alloca ptr, align 8
  store ptr %0, ptr %6, align 8
  store ptr %1, ptr %7, align 8
  store ptr %2, ptr %8, align 8
  store i64 %3, ptr %9, align 8
  store ptr %4, ptr %10, align 8
  %11 = load ptr, ptr %6, align 8
  %12 = getelementptr inbounds nuw %"class.pxrInternal_v0_24__pxrReserved__::TfCallContext", ptr %11, i32 0, i32 0
  %13 = load ptr, ptr %7, align 8
  store ptr %13, ptr %12, align 8
  %14 = getelementptr inbounds nuw %"class.pxrInternal_v0_24__pxrReserved__::TfCallContext", ptr %11, i32 0, i32 1
  %15 = load ptr, ptr %8, align 8
  store ptr %15, ptr %14, align 8
  %16 = getelementptr inbounds nuw %"class.pxrInternal_v0_24__pxrReserved__::TfCallContext", ptr %11, i32 0, i32 2
  %17 = load i64, ptr %9, align 8
  store i64 %17, ptr %16, align 8
  %18 = getelementptr inbounds nuw %"class.pxrInternal_v0_24__pxrReserved__::TfCallContext", ptr %11, i32 0, i32 3
  %19 = load ptr, ptr %10, align 8
  store ptr %19, ptr %18, align 8
  %20 = getelementptr inbounds nuw %"class.pxrInternal_v0_24__pxrReserved__::TfCallContext", ptr %11, i32 0, i32 4
  store i8 0, ptr %20, align 8
  ret void
}

; Function Attrs: mustprogress nounwind uwtable
define linkonce_odr i64 @_ZNK32pxrInternal_v0_24__pxrReserved__10PcpNodeRefcvMS0_mEv(ptr noundef nonnull align 8 dereferenceable(16) %0) #2 comdat align 2 {
  %2 = alloca ptr, align 8
  store ptr %0, ptr %2, align 8
  %3 = load ptr, ptr %2, align 8
  %4 = getelementptr inbounds nuw %"class.pxrInternal_v0_24__pxrReserved__::PcpNodeRef", ptr %3, i32 0, i32 0
  %5 = load ptr, ptr %4, align 8
  %6 = icmp ne ptr %5, null
  br i1 %6, label %7, label %11

7:                                                ; preds = %1
  %8 = getelementptr inbounds nuw %"class.pxrInternal_v0_24__pxrReserved__::PcpNodeRef", ptr %3, i32 0, i32 1
  %9 = load i64, ptr %8, align 8
  %10 = icmp ne i64 %9, -1
  br label %11

11:                                               ; preds = %7, %1
  %12 = phi i1 [ false, %1 ], [ %10, %7 ]
  %13 = select i1 %12, i64 8, i64 -1
  ret i64 %13
}

; Function Attrs: mustprogress uwtable
define internal void @_ZZN32pxrInternal_v0_24__pxrReserved__24PcpComputeNamespaceEditsEPKNS_8PcpCacheERKSt6vectorIPS0_SaIS4_EERKNS_7SdfPathESB_RKNS_9TfWeakPtrINS_8SdfLayerEEEEN16_CacheNodeHelper19InsertCacheNodePairEmNS_10PcpNodeRefEPSt3setISt4pairImSI_ESt4lessISL_ESaISL_EE(i64 noundef %0, ptr %1, i64 %2, ptr noundef %3) #0 align 2 {
  %5 = alloca %"class.pxrInternal_v0_24__pxrReserved__::PcpNodeRef", align 8
  %6 = alloca i64, align 8
  %7 = alloca ptr, align 8
  %8 = alloca %"class.pxrInternal_v0_24__pxrReserved__::PcpNodeRef", align 8
  %9 = alloca %"class.pxrInternal_v0_24__pxrReserved__::TfCallContext", align 8
  %10 = alloca %"struct.std::pair.166", align 8
  %11 = alloca %"struct.std::pair.162", align 8
  %12 = getelementptr inbounds nuw { ptr, i64 }, ptr %5, i32 0, i32 0
  store ptr %1, ptr %12, align 8
  %13 = getelementptr inbounds nuw { ptr, i64 }, ptr %5, i32 0, i32 1
  store i64 %2, ptr %13, align 8
  store i64 %0, ptr %6, align 8
  store ptr %3, ptr %7, align 8
  br label %14

14:                                               ; preds = %22, %4
  %15 = call i64 @_ZNK32pxrInternal_v0_24__pxrReserved__10PcpNodeRefcvMS0_mEv(ptr noundef nonnull align 8 dereferenceable(16) %5)
  %16 = icmp ne i64 %15, -1
  br i1 %16, label %17, label %20

17:                                               ; preds = %14
  %18 = call noundef i32 @_ZNK32pxrInternal_v0_24__pxrReserved__10PcpNodeRef10GetArcTypeEv(ptr noundef nonnull align 8 dereferenceable(16) %5)
  %19 = icmp eq i32 %18, 2
  br label %20

20:                                               ; preds = %17, %14
  %21 = phi i1 [ false, %14 ], [ %19, %17 ]
  br i1 %21, label %22, label %28

22:                                               ; preds = %20
  %23 = call { ptr, i64 } @_ZNK32pxrInternal_v0_24__pxrReserved__10PcpNodeRef13GetParentNodeEv(ptr noundef nonnull align 8 dereferenceable(16) %5)
  %24 = getelementptr inbounds nuw { ptr, i64 }, ptr %8, i32 0, i32 0
  %25 = extractvalue { ptr, i64 } %23, 0
  store ptr %25, ptr %24, align 8
  %26 = getelementptr inbounds nuw { ptr, i64 }, ptr %8, i32 0, i32 1
  %27 = extractvalue { ptr, i64 } %23, 1
  store i64 %27, ptr %26, align 8
  call void @llvm.memcpy.p0.p0.i64(ptr align 8 %5, ptr align 8 %8, i64 16, i1 false)
  br label %14, !llvm.loop !38

28:                                               ; preds = %20
  %29 = call i64 @_ZNK32pxrInternal_v0_24__pxrReserved__10PcpNodeRefcvMS0_mEv(ptr noundef nonnull align 8 dereferenceable(16) %5)
  %30 = icmp ne i64 %29, -1
  br i1 %30, label %31, label %32

31:                                               ; preds = %28
  br label %35

32:                                               ; preds = %28
  call void @_ZN32pxrInternal_v0_24__pxrReserved__13TfCallContextC2EPKcS2_mS2_(ptr noundef nonnull align 8 dereferenceable(33) %9, ptr noundef @.str.4, ptr noundef @__func__._ZZN32pxrInternal_v0_24__pxrReserved__24PcpComputeNamespaceEditsEPKNS_8PcpCacheERKSt6vectorIPS0_SaIS4_EERKNS_7SdfPathESB_RKNS_9TfWeakPtrINS_8SdfLayerEEEEN16_CacheNodeHelper19InsertCacheNodePairEmNS_10PcpNodeRefEPSt3setISt4pairImSI_ESt4lessISL_ESaISL_EE, i64 noundef 468, ptr noundef @__PRETTY_FUNCTION__._ZZN32pxrInternal_v0_24__pxrReserved__24PcpComputeNamespaceEditsEPKNS_8PcpCacheERKSt6vectorIPS0_SaIS4_EERKNS_7SdfPathESB_RKNS_9TfWeakPtrINS_8SdfLayerEEEEN16_CacheNodeHelper19InsertCacheNodePairEmNS_10PcpNodeRefEPSt3setISt4pairImSI_ESt4lessISL_ESaISL_EE)
  %33 = call noundef ptr @_ZN32pxrInternal_v0_24__pxrReserved__21Tf_VerifyStringFormatEv()
  %34 = call noundef zeroext i1 @_ZN32pxrInternal_v0_24__pxrReserved__21Tf_FailedVerifyHelperERKNS_13TfCallContextEPKcS4_(ptr noundef nonnull align 8 dereferenceable(33) %9, ptr noundef @.str.49, ptr noundef %33)
  br label %35

35:                                               ; preds = %32, %31
  %36 = phi i1 [ true, %31 ], [ %34, %32 ]
  br i1 %36, label %37, label %44

37:                                               ; preds = %35
  %38 = load ptr, ptr %7, align 8
  call void @_ZSt9make_pairIRmRN32pxrInternal_v0_24__pxrReserved__10PcpNodeRefEESt4pairINSt25__strip_reference_wrapperINSt5decayIT_E4typeEE6__typeENS5_INS6_IT0_E4typeEE6__typeEEOS7_OSC_(ptr dead_on_unwind writable sret(%"struct.std::pair.166") align 8 %10, ptr noundef nonnull align 8 dereferenceable(8) %6, ptr noundef nonnull align 8 dereferenceable(16) %5)
  %39 = call { ptr, i8 } @_ZNSt3setISt4pairImN32pxrInternal_v0_24__pxrReserved__10PcpNodeRefEESt4lessIS3_ESaIS3_EE6insertEOS3_(ptr noundef nonnull align 8 dereferenceable(48) %38, ptr noundef nonnull align 8 dereferenceable(24) %10)
  %40 = getelementptr inbounds nuw { ptr, i8 }, ptr %11, i32 0, i32 0
  %41 = extractvalue { ptr, i8 } %39, 0
  store ptr %41, ptr %40, align 8
  %42 = getelementptr inbounds nuw { ptr, i8 }, ptr %11, i32 0, i32 1
  %43 = extractvalue { ptr, i8 } %39, 1
  store i8 %43, ptr %42, align 8
  br label %44

44:                                               ; preds = %37, %35
  ret void
}