; Function Attrs: mustprogress uwtable
define internal fastcc void @_ZZN32pxrInternal_v0_24__pxrReserved__24PcpComputeNamespaceEditsEPKNS_8PcpCacheERKSt6vectorIPS0_SaIS4_EERKNS_7SdfPathESB_RKNS_9TfWeakPtrINS_8SdfLayerEEEEN16_CacheNodeHelper19InsertCacheNodePairEmNS_10PcpNodeRefEPSt3setISt4pairImSI_ESt4lessISL_ESaISL_EE(i64 noundef %0, ptr %1, i64 %2, ptr noundef %3) unnamed_addr #0 align 2 {
  %5 = alloca %"class.pxrInternal_v0_24__pxrReserved__::PcpNodeRef", align 8
  %6 = alloca %"class.pxrInternal_v0_24__pxrReserved__::TfCallContext", align 8
  %7 = alloca %"struct.std::pair.166", align 8
  store ptr %1, ptr %5, align 8
  %8 = getelementptr inbounds nuw i8, ptr %5, i64 8
  store i64 %2, ptr %8, align 8
  %.not.i7 = icmp eq ptr %1, null
  %.not1.i8 = icmp eq i64 %2, -1
  %9 = select i1 %.not.i7, i1 true, i1 %.not1.i8
  br i1 %9, label %.critedge, label %.lr.ph

.lr.ph:                                           ; preds = %4, %12
  %10 = call noundef i32 @_ZNK32pxrInternal_v0_24__pxrReserved__10PcpNodeRef10GetArcTypeEv(ptr noundef nonnull align 8 dereferenceable(16) %5)
  %11 = icmp eq i32 %10, 2
  br i1 %11, label %12, label %.lr.ph..critedge.loopexit_crit_edge

.lr.ph..critedge.loopexit_crit_edge:              ; preds = %.lr.ph
  %.pre.pre = load ptr, ptr %5, align 8
  %.pre10.pre = load i64, ptr %8, align 8
  br label %.critedge

12:                                               ; preds = %.lr.ph
  %13 = call { ptr, i64 } @_ZNK32pxrInternal_v0_24__pxrReserved__10PcpNodeRef13GetParentNodeEv(ptr noundef nonnull align 8 dereferenceable(16) %5)
  %14 = extractvalue { ptr, i64 } %13, 0
  %15 = extractvalue { ptr, i64 } %13, 1
  store ptr %14, ptr %5, align 8
  store i64 %15, ptr %8, align 8
  %.not.i = icmp eq ptr %14, null
  %.not1.i = icmp eq i64 %15, -1
  %16 = select i1 %.not.i, i1 true, i1 %.not1.i
  br i1 %16, label %.critedge, label %.lr.ph, !llvm.loop !16

.critedge:                                        ; preds = %12, %.lr.ph..critedge.loopexit_crit_edge, %4
  %17 = phi i64 [ %2, %4 ], [ %.pre10.pre, %.lr.ph..critedge.loopexit_crit_edge ], [ %15, %12 ]
  %18 = phi ptr [ %1, %4 ], [ %.pre.pre, %.lr.ph..critedge.loopexit_crit_edge ], [ %14, %12 ]
  %.not.i5 = icmp eq ptr %18, null
  %.not1.i6 = icmp eq i64 %17, -1
  %19 = select i1 %.not.i5, i1 true, i1 %.not1.i6
  br i1 %19, label %20, label %.critedge2

20:                                               ; preds = %.critedge
  store ptr @.str.4, ptr %6, align 8
  %21 = getelementptr inbounds nuw i8, ptr %6, i64 8
  store ptr @__func__._ZZN32pxrInternal_v0_24__pxrReserved__24PcpComputeNamespaceEditsEPKNS_8PcpCacheERKSt6vectorIPS0_SaIS4_EERKNS_7SdfPathESB_RKNS_9TfWeakPtrINS_8SdfLayerEEEEN16_CacheNodeHelper19InsertCacheNodePairEmNS_10PcpNodeRefEPSt3setISt4pairImSI_ESt4lessISL_ESaISL_EE, ptr %21, align 8
  %22 = getelementptr inbounds nuw i8, ptr %6, i64 16
  store i64 468, ptr %22, align 8
  %23 = getelementptr inbounds nuw i8, ptr %6, i64 24
  store ptr @__PRETTY_FUNCTION__._ZZN32pxrInternal_v0_24__pxrReserved__24PcpComputeNamespaceEditsEPKNS_8PcpCacheERKSt6vectorIPS0_SaIS4_EERKNS_7SdfPathESB_RKNS_9TfWeakPtrINS_8SdfLayerEEEEN16_CacheNodeHelper19InsertCacheNodePairEmNS_10PcpNodeRefEPSt3setISt4pairImSI_ESt4lessISL_ESaISL_EE, ptr %23, align 8
  %24 = getelementptr inbounds nuw i8, ptr %6, i64 32
  store i8 0, ptr %24, align 8
  %25 = call noundef zeroext i1 @_ZN32pxrInternal_v0_24__pxrReserved__21Tf_FailedVerifyHelperERKNS_13TfCallContextEPKcS4_(ptr noundef nonnull align 8 dereferenceable(33) %6, ptr noundef nonnull @.str.49, ptr noundef null)
  br i1 %25, label %.critedge2, label %28

.critedge2:                                       ; preds = %.critedge, %20
  store i64 %0, ptr %7, align 8, !alias.scope !183
  %26 = getelementptr inbounds nuw i8, ptr %7, i64 8
  call void @llvm.memcpy.p0.p0.i64(ptr noundef nonnull align 8 dereferenceable(16) %26, ptr noundef nonnull align 8 dereferenceable(16) %5, i64 16, i1 false)
  %27 = call { ptr, i8 } @_ZNSt8_Rb_treeISt4pairImN32pxrInternal_v0_24__pxrReserved__10PcpNodeRefEES3_St9_IdentityIS3_ESt4lessIS3_ESaIS3_EE16_M_insert_uniqueIS3_EES0_ISt17_Rb_tree_iteratorIS3_EbEOT_(ptr noundef nonnull align 8 dereferenceable(48) %3, ptr noundef nonnull align 8 dereferenceable(24) %7)
  br label %28

28:                                               ; preds = %.critedge2, %20
  ret void
}